; Function Attrs: nounwind uwtable
define dso_local range(i32 -1, 1) i32 @php_output_clean() local_unnamed_addr #0 {
  %1 = alloca %struct._php_output_context, align 8
  call void @llvm.lifetime.start.p0(i64 72, ptr nonnull %1) #22
  %2 = load ptr, ptr getelementptr inbounds nuw (i8, ptr @output_globals, i64 24), align 8, !tbaa !46
  %.not = icmp eq ptr %2, null
  br i1 %.not, label %php_output_context_dtor.exit, label %3

3:                                                ; preds = %0
  %4 = getelementptr inbounds nuw i8, ptr %2, i64 8
  %5 = load i32, ptr %4, align 8, !tbaa !54
  %6 = and i32 %5, 16
  %.not2 = icmp eq i32 %6, 0
  br i1 %.not2, label %php_output_context_dtor.exit, label %7

7:                                                ; preds = %3
  call void @llvm.memset.p0.i64(ptr noundef nonnull align 8 dereferenceable(72) %1, i8 0, i64 72, i1 false)
  store i32 2, ptr %1, align 8, !tbaa !49
  %8 = call fastcc i32 @php_output_handler_op(ptr noundef nonnull %2, ptr noundef nonnull %1)
  %9 = getelementptr inbounds nuw i8, ptr %1, i64 8
  %10 = getelementptr inbounds nuw i8, ptr %1, i64 32
  %11 = load i32, ptr %10, align 8
  %12 = and i32 %11, 1
  %.not.i = icmp eq i32 %12, 0
  br i1 %.not.i, label %16, label %13

13:                                               ; preds = %7
  %14 = load ptr, ptr %9, align 8, !tbaa !52
  %.not9.i = icmp eq ptr %14, null
  br i1 %.not9.i, label %16, label %15

15:                                               ; preds = %13
  call void @_efree(ptr noundef nonnull %14) #22
  store ptr null, ptr %9, align 8, !tbaa !52
  br label %16

16:                                               ; preds = %15, %13, %7
  %17 = getelementptr inbounds nuw i8, ptr %1, i64 64
  %18 = load i32, ptr %17, align 8
  %19 = and i32 %18, 1
  %.not10.i = icmp eq i32 %19, 0
  br i1 %.not10.i, label %php_output_context_dtor.exit, label %20

20:                                               ; preds = %16
  %21 = getelementptr inbounds nuw i8, ptr %1, i64 40
  %22 = load ptr, ptr %21, align 8, !tbaa !56
  %.not11.i = icmp eq ptr %22, null
  br i1 %.not11.i, label %php_output_context_dtor.exit, label %23

23:                                               ; preds = %20
  call void @_efree(ptr noundef nonnull %22) #22
  br label %php_output_context_dtor.exit

php_output_context_dtor.exit:                     ; preds = %23, %20, %16, %0, %3
  %.0 = phi i32 [ -1, %3 ], [ -1, %0 ], [ 0, %16 ], [ 0, %20 ], [ 0, %23 ]
  call void @llvm.lifetime.end.p0(i64 72, ptr nonnull %1) #22
  ret i32 %.0
}